target datalayout = "e-m:e-p270:32:32-p271:32:32-p272:64:64-i64:64-i128:128-f80:128-n8:16:32:64-S128"
target triple = "x86_64-pc-linux-gnu"

%struct.Abc_Ntk_t_ = type { i32, i32, ptr, ptr, ptr, ptr, ptr, ptr, ptr, ptr, ptr, ptr, ptr, [11 x i32], i32, i32, i32, i32, ptr, i32, ptr, ptr, i32, i32, i32, double, i32, %struct.Vec_Int_t_, ptr, ptr, ptr, ptr, ptr, float, i32, ptr, ptr, ptr, ptr, ptr, ptr, ptr, ptr, ptr, ptr, ptr, ptr, ptr, ptr, ptr, ptr, ptr, ptr, ptr, ptr, ptr, ptr }
%struct.Vec_Int_t_ = type { i32, i32, ptr }
%struct.Abc_Obj_t_ = type { ptr, ptr, i32, i32, %struct.Vec_Int_t_, %struct.Vec_Int_t_, %union.anon, %union.anon.0 }
%union.anon = type { ptr }
%union.anon.0 = type { ptr }
%struct.Vec_Ptr_t_ = type { i32, i32, ptr }

@.str.10 = private unnamed_addr constant [12 x i8] c"(%d,%d:%d) \00", align 1

; Function Attrs: inlinehint nounwind uwtable
define internal ptr @Abc_ObjRegular(ptr noundef %0) #3 {
  %2 = alloca ptr, align 8
  store ptr %0, ptr %2, align 8, !tbaa !45
  %3 = load ptr, ptr %2, align 8, !tbaa !45
  %4 = ptrtoint ptr %3 to i64
  %5 = and i64 %4, -2
  %6 = inttoptr i64 %5 to ptr
  ret ptr %6
}

; Function Attrs: inlinehint nounwind uwtable
define internal ptr @Vec_PtrEntry(ptr noundef %0, i32 noundef %1) #3 {
  %3 = alloca ptr, align 8
  %4 = alloca i32, align 4
  store ptr %0, ptr %3, align 8, !tbaa !66
  store i32 %1, ptr %4, align 4, !tbaa !8
  %5 = load ptr, ptr %3, align 8, !tbaa !66
  %6 = getelementptr inbounds nuw %struct.Vec_Ptr_t_, ptr %5, i32 0, i32 2
  %7 = load ptr, ptr %6, align 8, !tbaa !74
  %8 = load i32, ptr %4, align 4, !tbaa !8
  %9 = sext i32 %8 to i64
  %10 = getelementptr inbounds ptr, ptr %7, i64 %9
  %11 = load ptr, ptr %10, align 8, !tbaa !75
  ret ptr %11
}

; Function Attrs: inlinehint nounwind uwtable
define internal i32 @Vec_PtrSize(ptr noundef %0) #3 {
  %2 = alloca ptr, align 8
  store ptr %0, ptr %2, align 8, !tbaa !66
  %3 = load ptr, ptr %2, align 8, !tbaa !66
  %4 = getelementptr inbounds nuw %struct.Vec_Ptr_t_, ptr %3, i32 0, i32 1
  %5 = load i32, ptr %4, align 4, !tbaa !67
  ret i32 %5
}

; Function Attrs: inlinehint nounwind uwtable
define internal ptr @Abc_ObjFanin1(ptr noundef %0) #3 {
  %2 = alloca ptr, align 8
  store ptr %0, ptr %2, align 8, !tbaa !45
  %3 = load ptr, ptr %2, align 8, !tbaa !45
  %4 = getelementptr inbounds nuw %struct.Abc_Obj_t_, ptr %3, i32 0, i32 0
  %5 = load ptr, ptr %4, align 8, !tbaa !76
  %6 = getelementptr inbounds nuw %struct.Abc_Ntk_t_, ptr %5, i32 0, i32 5
  %7 = load ptr, ptr %6, align 8, !tbaa !44
  %8 = getelementptr inbounds nuw %struct.Vec_Ptr_t_, ptr %7, i32 0, i32 2
  %9 = load ptr, ptr %8, align 8, !tbaa !74
  %10 = load ptr, ptr %2, align 8, !tbaa !45
  %11 = getelementptr inbounds nuw %struct.Abc_Obj_t_, ptr %10, i32 0, i32 4
  %12 = getelementptr inbounds nuw %struct.Vec_Int_t_, ptr %11, i32 0, i32 2
  %13 = load ptr, ptr %12, align 8, !tbaa !77
  %14 = getelementptr inbounds i32, ptr %13, i64 1
  %15 = load i32, ptr %14, align 4, !tbaa !8
  %16 = sext i32 %15 to i64
  %17 = getelementptr inbounds ptr, ptr %9, i64 %16
  %18 = load ptr, ptr %17, align 8, !tbaa !75
  ret ptr %18
}

; Function Attrs: inlinehint nounwind uwtable
define internal ptr @Abc_ObjFanin0(ptr noundef %0) #3 {
  %2 = alloca ptr, align 8
  store ptr %0, ptr %2, align 8, !tbaa !45
  %3 = load ptr, ptr %2, align 8, !tbaa !45
  %4 = getelementptr inbounds nuw %struct.Abc_Obj_t_, ptr %3, i32 0, i32 0
  %5 = load ptr, ptr %4, align 8, !tbaa !76
  %6 = getelementptr inbounds nuw %struct.Abc_Ntk_t_, ptr %5, i32 0, i32 5
  %7 = load ptr, ptr %6, align 8, !tbaa !44
  %8 = getelementptr inbounds nuw %struct.Vec_Ptr_t_, ptr %7, i32 0, i32 2
  %9 = load ptr, ptr %8, align 8, !tbaa !74
  %10 = load ptr, ptr %2, align 8, !tbaa !45
  %11 = getelementptr inbounds nuw %struct.Abc_Obj_t_, ptr %10, i32 0, i32 4
  %12 = getelementptr inbounds nuw %struct.Vec_Int_t_, ptr %11, i32 0, i32 2
  %13 = load ptr, ptr %12, align 8, !tbaa !77
  %14 = getelementptr inbounds i32, ptr %13, i64 0
  %15 = load i32, ptr %14, align 4, !tbaa !8
  %16 = sext i32 %15 to i64
  %17 = getelementptr inbounds ptr, ptr %9, i64 %16
  %18 = load ptr, ptr %17, align 8, !tbaa !75
  ret ptr %18
}

; Function Attrs: nounwind uwtable
define void @Abc_RwrExpWithCut(ptr noundef %0, ptr noundef %1) #0 {
  %3 = alloca ptr, align 8
  %4 = alloca ptr, align 8
  %5 = alloca ptr, align 8
  %6 = alloca i32, align 4
  %7 = alloca i32, align 4
  %8 = alloca i32, align 4
  store ptr %0, ptr %3, align 8, !tbaa !45
  store ptr %1, ptr %4, align 8, !tbaa !66
  call void @llvm.lifetime.start.p0(i64 8, ptr %5) #8
  call void @llvm.lifetime.start.p0(i64 4, ptr %6) #8
  call void @llvm.lifetime.start.p0(i64 4, ptr %7) #8
  call void @llvm.lifetime.start.p0(i64 4, ptr %8) #8
  %9 = load ptr, ptr %3, align 8, !tbaa !45
  %10 = call ptr @Abc_ObjFanin0(ptr noundef %9)
  %11 = load ptr, ptr %4, align 8, !tbaa !66
  call void @Abc_RwrExpWithCut_rec(ptr noundef %10, ptr noundef %11, i32 noundef 1)
  %12 = load ptr, ptr %3, align 8, !tbaa !45
  %13 = call ptr @Abc_ObjFanin1(ptr noundef %12)
  %14 = load ptr, ptr %4, align 8, !tbaa !66
  call void @Abc_RwrExpWithCut_rec(ptr noundef %13, ptr noundef %14, i32 noundef 0)
  store i32 0, ptr %8, align 4, !tbaa !8
  store i32 0, ptr %7, align 4, !tbaa !8
  store i32 0, ptr %6, align 4, !tbaa !8
  br label %15

15:                                               ; preds = %55, %2
  %16 = load i32, ptr %6, align 4, !tbaa !8
  %17 = load ptr, ptr %4, align 8, !tbaa !66
  %18 = call i32 @Vec_PtrSize(ptr noundef %17)
  %19 = icmp slt i32 %16, %18
  br i1 %19, label %20, label %24

20:                                               ; preds = %15
  %21 = load ptr, ptr %4, align 8, !tbaa !66
  %22 = load i32, ptr %6, align 4, !tbaa !8
  %23 = call ptr @Vec_PtrEntry(ptr noundef %21, i32 noundef %22)
  store ptr %23, ptr %5, align 8, !tbaa !45
  br label %24

24:                                               ; preds = %20, %15
  %25 = phi i1 [ false, %15 ], [ true, %20 ]
  br i1 %25, label %26, label %58

26:                                               ; preds = %24
  %27 = load ptr, ptr %5, align 8, !tbaa !45
  %28 = call ptr @Abc_ObjRegular(ptr noundef %27)
  %29 = getelementptr inbounds nuw %struct.Abc_Obj_t_, ptr %28, i32 0, i32 3
  %30 = load i32, ptr %29, align 4
  %31 = lshr i32 %30, 4
  %32 = and i32 %31, 1
  %33 = load i32, ptr %7, align 4, !tbaa !8
  %34 = add nsw i32 %33, %32
  store i32 %34, ptr %7, align 4, !tbaa !8
  %35 = load ptr, ptr %5, align 8, !tbaa !45
  %36 = call ptr @Abc_ObjRegular(ptr noundef %35)
  %37 = getelementptr inbounds nuw %struct.Abc_Obj_t_, ptr %36, i32 0, i32 3
  %38 = load i32, ptr %37, align 4
  %39 = lshr i32 %38, 5
  %40 = and i32 %39, 1
  %41 = load i32, ptr %8, align 4, !tbaa !8
  %42 = add nsw i32 %41, %40
  store i32 %42, ptr %8, align 4, !tbaa !8
  %43 = load ptr, ptr %5, align 8, !tbaa !45
  %44 = call ptr @Abc_ObjRegular(ptr noundef %43)
  %45 = getelementptr inbounds nuw %struct.Abc_Obj_t_, ptr %44, i32 0, i32 3
  %46 = load i32, ptr %45, align 4
  %47 = and i32 %46, -17
  %48 = or i32 %47, 0
  store i32 %48, ptr %45, align 4
  %49 = load ptr, ptr %5, align 8, !tbaa !45
  %50 = call ptr @Abc_ObjRegular(ptr noundef %49)
  %51 = getelementptr inbounds nuw %struct.Abc_Obj_t_, ptr %50, i32 0, i32 3
  %52 = load i32, ptr %51, align 4
  %53 = and i32 %52, -33
  %54 = or i32 %53, 0
  store i32 %54, ptr %51, align 4
  br label %55

55:                                               ; preds = %26
  %56 = load i32, ptr %6, align 4, !tbaa !8
  %57 = add nsw i32 %56, 1
  store i32 %57, ptr %6, align 4, !tbaa !8
  br label %15, !llvm.loop !81

58:                                               ; preds = %24
  %59 = load i32, ptr %7, align 4, !tbaa !8
  %60 = load i32, ptr %8, align 4, !tbaa !8
  %61 = load i32, ptr %7, align 4, !tbaa !8
  %62 = load i32, ptr %8, align 4, !tbaa !8
  %63 = add nsw i32 %61, %62
  %64 = load ptr, ptr %4, align 8, !tbaa !66
  %65 = call i32 @Vec_PtrSize(ptr noundef %64)
  %66 = sub nsw i32 %63, %65
  %67 = call i32 (ptr, ...) @printf(ptr noundef @.str.10, i32 noundef %59, i32 noundef %60, i32 noundef %66)
  call void @llvm.lifetime.end.p0(i64 4, ptr %8) #8
  call void @llvm.lifetime.end.p0(i64 4, ptr %7) #8
  call void @llvm.lifetime.end.p0(i64 4, ptr %6) #8
  call void @llvm.lifetime.end.p0(i64 8, ptr %5) #8
  ret void
}