; Function Attrs: nofree nounwind uwtable
define void @Abc_RwrExpWithCut(ptr noundef readonly captures(none) %0, ptr noundef readonly captures(none) %1) local_unnamed_addr #4 {
  %.val23 = load ptr, ptr %0, align 8, !tbaa !61
  %3 = getelementptr i8, ptr %0, i64 32
  %.val24 = load ptr, ptr %3, align 8, !tbaa !62
  %4 = getelementptr i8, ptr %.val23, i64 32
  %.val23.val = load ptr, ptr %4, align 8, !tbaa !34
  %.val24.val = load i32, ptr %.val24, align 4, !tbaa !49
  %5 = getelementptr i8, ptr %.val23.val, i64 8
  %.val23.val.val = load ptr, ptr %5, align 8, !tbaa !40
  %6 = sext i32 %.val24.val to i64
  %7 = getelementptr inbounds ptr, ptr %.val23.val.val, i64 %6
  %8 = load ptr, ptr %7, align 8, !tbaa !41
  tail call void @Abc_RwrExpWithCut_rec(ptr noundef %8, ptr noundef %1, i32 noundef 1)
  %.val25 = load ptr, ptr %0, align 8, !tbaa !61
  %.val26 = load ptr, ptr %3, align 8, !tbaa !62
  %9 = getelementptr i8, ptr %.val25, i64 32
  %.val25.val = load ptr, ptr %9, align 8, !tbaa !34
  %10 = getelementptr i8, ptr %.val26, i64 4
  %.val26.val = load i32, ptr %10, align 4, !tbaa !49
  %11 = getelementptr i8, ptr %.val25.val, i64 8
  %.val25.val.val = load ptr, ptr %11, align 8, !tbaa !40
  %12 = sext i32 %.val26.val to i64
  %13 = getelementptr inbounds ptr, ptr %.val25.val.val, i64 %12
  %14 = load ptr, ptr %13, align 8, !tbaa !41
  tail call void @Abc_RwrExpWithCut_rec(ptr noundef %14, ptr noundef %1, i32 noundef 0)
  %15 = getelementptr i8, ptr %1, i64 4
  %.val2127 = load i32, ptr %15, align 4, !tbaa !35
  %16 = icmp sgt i32 %.val2127, 0
  br i1 %16, label %.lr.ph, label %.critedge

.lr.ph:                                           ; preds = %2
  %17 = getelementptr i8, ptr %1, i64 8
  br label %18

18:                                               ; preds = %.lr.ph, %18
  %indvars.iv = phi i64 [ 0, %.lr.ph ], [ %indvars.iv.next, %18 ]
  %.030 = phi i32 [ 0, %.lr.ph ], [ %31, %18 ]
  %.01929 = phi i32 [ 0, %.lr.ph ], [ %28, %18 ]
  %.val22 = load ptr, ptr %17, align 8, !tbaa !40
  %19 = getelementptr inbounds nuw ptr, ptr %.val22, i64 %indvars.iv
  %20 = load ptr, ptr %19, align 8, !tbaa !41
  %21 = ptrtoint ptr %20 to i64
  %22 = and i64 %21, -2
  %23 = inttoptr i64 %22 to ptr
  %24 = getelementptr inbounds nuw i8, ptr %23, i64 20
  %25 = load i32, ptr %24, align 4
  %26 = lshr i32 %25, 4
  %27 = and i32 %26, 1
  %28 = add nuw nsw i32 %27, %.01929
  %29 = lshr i32 %25, 5
  %30 = and i32 %29, 1
  %31 = add nuw nsw i32 %30, %.030
  %32 = and i32 %25, -49
  store i32 %32, ptr %24, align 4
  %indvars.iv.next = add nuw nsw i64 %indvars.iv, 1
  %.val21 = load i32, ptr %15, align 4, !tbaa !35
  %33 = sext i32 %.val21 to i64
  %34 = icmp slt i64 %indvars.iv.next, %33
  br i1 %34, label %18, label %.critedge, !llvm.loop !72

.critedge:                                        ; preds = %18, %2
  %.019.lcssa = phi i32 [ 0, %2 ], [ %28, %18 ]
  %.0.lcssa = phi i32 [ 0, %2 ], [ %31, %18 ]
  %.val21.lcssa = phi i32 [ %.val2127, %2 ], [ %.val21, %18 ]
  %35 = add nuw nsw i32 %.0.lcssa, %.019.lcssa
  %36 = sub i32 %35, %.val21.lcssa
  %37 = tail call i32 (ptr, ...) @printf(ptr noundef nonnull dereferenceable(1) @.str.10, i32 noundef %.019.lcssa, i32 noundef %.0.lcssa, i32 noundef %36)
  ret void
}